; Function Attrs: null_pointer_is_valid sspstrong uwtable
define internal fastcc void @dissect_multizone_image_leader(ptr noundef %0, ptr noundef %1, i32 noundef range(i32 8, 21) %2) unnamed_addr #0 {
  %4 = load i32, ptr @hf_gvsp_fieldinfo, align 4
  %5 = load i32, ptr @ett_gvsp_fieldinfo, align 4
  %6 = tail call ptr @proto_tree_add_bitmask(ptr noundef %0, ptr noundef %1, i32 noundef %2, i32 noundef %4, i32 noundef %5, ptr noundef nonnull @fieldinfo_fields, i32 noundef 0)
  %7 = load i32, ptr @hf_gvsp_payloadtype, align 4
  %8 = add nuw nsw i32 %2, 2
  %9 = tail call ptr @proto_tree_add_item(ptr noundef %0, i32 noundef %7, ptr noundef %1, i32 noundef %8, i32 noundef 2, i32 noundef 0)
  %10 = load i32, ptr @hf_gvsp_timestamp, align 4
  %11 = add nuw nsw i32 %2, 4
  %12 = tail call ptr @proto_tree_add_item(ptr noundef %0, i32 noundef %10, ptr noundef %1, i32 noundef %11, i32 noundef 8, i32 noundef 0)
  %13 = add nuw nsw i32 %2, 12
  %14 = load i32, ptr @hf_gvsp_sc_zone_direction, align 4
  %15 = load i32, ptr @ett_gvsp_sc_zone_direction, align 4
  %16 = tail call ptr @proto_tree_add_bitmask(ptr noundef %0, ptr noundef %1, i32 noundef %13, i32 noundef %14, i32 noundef %15, ptr noundef nonnull @sc_zone_direction_fields, i32 noundef 0)
  %17 = add nuw nsw i32 %2, 16
  %18 = load i32, ptr @hf_gvsp_pixelformat, align 4
  %19 = load i32, ptr @ett_gvsp_pixelformat, align 4
  %20 = tail call ptr @proto_tree_add_bitmask(ptr noundef %0, ptr noundef %1, i32 noundef %17, i32 noundef %18, i32 noundef %19, ptr noundef nonnull @pixelformat_fields, i32 noundef 0)
  %21 = add nuw nsw i32 %2, 20
  %22 = load i32, ptr @hf_gvsp_sizex, align 4
  %23 = tail call ptr @proto_tree_add_item(ptr noundef %0, i32 noundef %22, ptr noundef %1, i32 noundef %21, i32 noundef 4, i32 noundef 0)
  %24 = load i32, ptr @hf_gvsp_sizey, align 4
  %25 = add nuw nsw i32 %2, 24
  %26 = tail call ptr @proto_tree_add_item(ptr noundef %0, i32 noundef %24, ptr noundef %1, i32 noundef %25, i32 noundef 4, i32 noundef 0)
  %27 = load i32, ptr @hf_gvsp_offsetx, align 4
  %28 = add nuw nsw i32 %2, 28
  %29 = tail call ptr @proto_tree_add_item(ptr noundef %0, i32 noundef %27, ptr noundef %1, i32 noundef %28, i32 noundef 4, i32 noundef 0)
  %30 = load i32, ptr @hf_gvsp_offsety, align 4
  %31 = or disjoint i32 %2, 32
  %32 = tail call ptr @proto_tree_add_item(ptr noundef %0, i32 noundef %30, ptr noundef %1, i32 noundef %31, i32 noundef 4, i32 noundef 0)
  %33 = load i32, ptr @hf_gvsp_paddingx, align 4
  %34 = add nuw nsw i32 %2, 36
  %35 = tail call ptr @proto_tree_add_item(ptr noundef %0, i32 noundef %33, ptr noundef %1, i32 noundef %34, i32 noundef 2, i32 noundef 0)
  %36 = load i32, ptr @hf_gvsp_paddingy, align 4
  %37 = add nuw nsw i32 %2, 38
  %38 = tail call ptr @proto_tree_add_item(ptr noundef %0, i32 noundef %36, ptr noundef %1, i32 noundef %37, i32 noundef 2, i32 noundef 0)
  ret void
}